target datalayout = "e-m:e-p270:32:32-p271:32:32-p272:64:64-i64:64-i128:128-f80:128-n8:16:32:64-S128"
target triple = "x86_64-pc-linux-gnu"

%struct._lv_obj_t = type { ptr, ptr, ptr, ptr, ptr, %struct.lv_area_t, i32, i16, i16 }
%struct.lv_area_t = type { i32, i32, i32, i32 }
%struct.lv_event_list_t = type { %struct._lv_array_t, i8 }
%struct._lv_array_t = type { ptr, i32, i32, i32, i8 }
%struct._lv_obj_spec_attr_t = type { ptr, ptr, %struct.lv_event_list_t, %struct.lv_point_t, i32, i32, i16, i16 }
%struct.lv_point_t = type { i32, i32 }

; Function Attrs: nounwind uwtable
define ptr @lv_obj_get_child(ptr noundef %0, i32 noundef %1) #0 {
  %3 = alloca ptr, align 8
  %4 = alloca ptr, align 8
  %5 = alloca i32, align 4
  %6 = alloca i32, align 4
  %7 = alloca i32, align 4
  store ptr %0, ptr %4, align 8, !tbaa !3
  store i32 %1, ptr %5, align 4, !tbaa !37
  br label %8

8:                                                ; preds = %2
  %9 = load ptr, ptr %4, align 8, !tbaa !3
  %10 = icmp ne ptr %9, null
  br i1 %10, label %15, label %11

11:                                               ; preds = %8
  br label %12

12:                                               ; preds = %11
  br label %13

13:                                               ; preds = %12
  br label %14

14:                                               ; preds = %13, %14
  br label %14

15:                                               ; preds = %8
  br label %16

16:                                               ; preds = %15
  %17 = load ptr, ptr %4, align 8, !tbaa !3
  %18 = getelementptr inbounds nuw %struct._lv_obj_t, ptr %17, i32 0, i32 2
  %19 = load ptr, ptr %18, align 8, !tbaa !43
  %20 = icmp eq ptr %19, null
  br i1 %20, label %21, label %22

21:                                               ; preds = %16
  store ptr null, ptr %3, align 8
  br label %62

22:                                               ; preds = %16
  call void @llvm.lifetime.start.p0(i64 4, ptr %6) #3
  %23 = load i32, ptr %5, align 4, !tbaa !37
  %24 = icmp slt i32 %23, 0
  br i1 %24, label %25, label %39

25:                                               ; preds = %22
  %26 = load ptr, ptr %4, align 8, !tbaa !3
  %27 = getelementptr inbounds nuw %struct._lv_obj_t, ptr %26, i32 0, i32 2
  %28 = load ptr, ptr %27, align 8, !tbaa !43
  %29 = getelementptr inbounds nuw %struct._lv_obj_spec_attr_t, ptr %28, i32 0, i32 6
  %30 = load i16, ptr %29, align 8, !tbaa !64
  %31 = zext i16 %30 to i32
  %32 = load i32, ptr %5, align 4, !tbaa !37
  %33 = add nsw i32 %31, %32
  store i32 %33, ptr %5, align 4, !tbaa !37
  %34 = load i32, ptr %5, align 4, !tbaa !37
  %35 = icmp slt i32 %34, 0
  br i1 %35, label %36, label %37

36:                                               ; preds = %25
  store ptr null, ptr %3, align 8
  store i32 1, ptr %7, align 4
  br label %61

37:                                               ; preds = %25
  %38 = load i32, ptr %5, align 4, !tbaa !37
  store i32 %38, ptr %6, align 4, !tbaa !37
  br label %41

39:                                               ; preds = %22
  %40 = load i32, ptr %5, align 4, !tbaa !37
  store i32 %40, ptr %6, align 4, !tbaa !37
  br label %41

41:                                               ; preds = %39, %37
  %42 = load i32, ptr %6, align 4, !tbaa !37
  %43 = load ptr, ptr %4, align 8, !tbaa !3
  %44 = getelementptr inbounds nuw %struct._lv_obj_t, ptr %43, i32 0, i32 2
  %45 = load ptr, ptr %44, align 8, !tbaa !43
  %46 = getelementptr inbounds nuw %struct._lv_obj_spec_attr_t, ptr %45, i32 0, i32 6
  %47 = load i16, ptr %46, align 8, !tbaa !64
  %48 = zext i16 %47 to i32
  %49 = icmp uge i32 %42, %48
  br i1 %49, label %50, label %51

50:                                               ; preds = %41
  store ptr null, ptr %3, align 8
  store i32 1, ptr %7, align 4
  br label %61

51:                                               ; preds = %41
  %52 = load ptr, ptr %4, align 8, !tbaa !3
  %53 = getelementptr inbounds nuw %struct._lv_obj_t, ptr %52, i32 0, i32 2
  %54 = load ptr, ptr %53, align 8, !tbaa !43
  %55 = getelementptr inbounds nuw %struct._lv_obj_spec_attr_t, ptr %54, i32 0, i32 0
  %56 = load ptr, ptr %55, align 8, !tbaa !66
  %57 = load i32, ptr %5, align 4, !tbaa !37
  %58 = sext i32 %57 to i64
  %59 = getelementptr inbounds ptr, ptr %56, i64 %58
  %60 = load ptr, ptr %59, align 8, !tbaa !3
  store ptr %60, ptr %3, align 8
  store i32 1, ptr %7, align 4
  br label %61

61:                                               ; preds = %51, %50, %36
  call void @llvm.lifetime.end.p0(i64 4, ptr %6) #3
  br label %62

62:                                               ; preds = %61, %21
  %63 = load ptr, ptr %3, align 8
  ret ptr %63
}