; Function Attrs: nofree norecurse nosync nounwind memory(read, inaccessiblemem: none) uwtable
define ptr @lv_obj_get_child(ptr noundef readonly captures(address_is_null) %0, i32 noundef %1) local_unnamed_addr #4 {
  %.not = icmp eq ptr %0, null
  br i1 %.not, label %.preheader, label %3

.preheader:                                       ; preds = %2, %.preheader
  br label %.preheader

3:                                                ; preds = %2
  %4 = getelementptr inbounds nuw i8, ptr %0, i64 16
  %5 = load ptr, ptr %4, align 8, !tbaa !37
  %6 = icmp eq ptr %5, null
  br i1 %6, label %20, label %7

7:                                                ; preds = %3
  %8 = icmp slt i32 %1, 0
  %9 = getelementptr inbounds nuw i8, ptr %5, i64 64
  %10 = load i16, ptr %9, align 8, !tbaa !38
  %11 = zext i16 %10 to i32
  br i1 %8, label %12, label %._crit_edge

12:                                               ; preds = %7
  %13 = add nsw i32 %1, %11
  %14 = icmp slt i32 %13, 0
  br i1 %14, label %20, label %._crit_edge

._crit_edge:                                      ; preds = %7, %12
  %.0 = phi i32 [ %13, %12 ], [ %1, %7 ]
  %.not19 = icmp samesign ult i32 %.0, %11
  br i1 %.not19, label %15, label %20

15:                                               ; preds = %._crit_edge
  %16 = load ptr, ptr %5, align 8, !tbaa !42
  %17 = zext nneg i32 %.0 to i64
  %18 = getelementptr inbounds nuw ptr, ptr %16, i64 %17
  %19 = load ptr, ptr %18, align 8, !tbaa !33
  br label %20

20:                                               ; preds = %15, %12, %._crit_edge, %3
  %.013 = phi ptr [ null, %3 ], [ %19, %15 ], [ null, %12 ], [ null, %._crit_edge ]
  ret ptr %.013
}